; Function Attrs: mustprogress uwtable
define void @_ZN8QuantLib10IborCoupon6acceptERNS_14AcyclicVisitorE(ptr noundef nonnull align 8 dereferenceable(248) %this, ptr noundef nonnull align 8 dereferenceable(8) %v) unnamed_addr #8 align 2 {
entry:
  %0 = tail call ptr @__dynamic_cast(ptr nonnull %v, ptr nonnull @_ZTIN8QuantLib14AcyclicVisitorE, ptr nonnull @_ZTIN8QuantLib7VisitorINS_10IborCouponEEE, i64 -2) #29
  %cmp.not = icmp eq ptr %0, null
  br i1 %cmp.not, label %if.else, label %if.then

if.then:                                          ; preds = %entry
  %vtable = load ptr, ptr %0, align 8, !tbaa !33
  %vfn = getelementptr inbounds i8, ptr %vtable, i64 16
  %1 = load ptr, ptr %vfn, align 8
  tail call void %1(ptr noundef nonnull align 8 dereferenceable(8) %0, ptr noundef nonnull align 8 dereferenceable(248) %this)
  br label %if.end

if.else:                                          ; preds = %entry
  %2 = tail call ptr @__dynamic_cast(ptr nonnull %v, ptr nonnull @_ZTIN8QuantLib14AcyclicVisitorE, ptr nonnull @_ZTIN8QuantLib7VisitorINS_18FloatingRateCouponEEE, i64 -2) #29
  %cmp.not.i = icmp eq ptr %2, null
  br i1 %cmp.not.i, label %if.else.i, label %if.then.i

if.then.i:                                        ; preds = %if.else
  %vtable.i = load ptr, ptr %2, align 8, !tbaa !33
  %vfn.i = getelementptr inbounds i8, ptr %vtable.i, i64 16
  %3 = load ptr, ptr %vfn.i, align 8
  tail call void %3(ptr noundef nonnull align 8 dereferenceable(8) %2, ptr noundef nonnull align 8 dereferenceable(176) %this)
  br label %if.end

if.else.i:                                        ; preds = %if.else
  tail call void @_ZN8QuantLib6Coupon6acceptERNS_14AcyclicVisitorE(ptr noundef nonnull align 8 dereferenceable(88) %this, ptr noundef nonnull align 8 dereferenceable(8) %v)
  br label %if.end

if.end:                                           ; preds = %if.else.i, %if.then.i, %if.then
  ret void
}